target datalayout = "e-m:e-p270:32:32-p271:32:32-p272:64:64-i64:64-i128:128-f80:128-n8:16:32:64-S128"
target triple = "x86_64-pc-linux-gnu"

%struct._capture_file = type { ptr, i32, ptr, ptr, i8, i8, i8, i64, i16, i32, i32, i32, ptr, i32, i64, i32, i32, i32, i32, i8, i32, %struct.nstime_t, i32, ptr, ptr, ptr, i8, i8, i32, ptr, i8, i8, i8, i8, i8, i32, i32, i8, ptr, i32, i32, i8, %struct.packet_provider_data, i32, i32, %struct.epan_column_info, ptr, ptr, ptr, %struct.wtap_rec, %struct.Buffer, ptr, i64, i32 }
%struct.nstime_t = type { i64, i32 }
%struct.packet_provider_data = type { ptr, ptr, ptr, ptr, ptr, ptr }
%struct.epan_column_info = type { ptr, i32, ptr, ptr, ptr, %struct.col_expr_t, i8, ptr }
%struct.col_expr_t = type { ptr, ptr }
%struct.wtap_rec = type { i32, i32, i32, %struct.nstime_t, i32, %struct.nstime_t, i8, %union.anon, ptr, i8, %struct.Buffer, %struct.Buffer }
%union.anon = type { %struct.wtap_packet_header }
%struct.wtap_packet_header = type { i32, i32, i32, i32, %union.wtap_pseudo_header }
%union.wtap_pseudo_header = type { %struct.erf_mc_phdr }
%struct.erf_mc_phdr = type { %struct.erf_phdr, [16 x %struct.erf_ehdr], %union.anon.1 }
%struct.erf_phdr = type { i64, i8, i8, i16, i16, i16 }
%struct.erf_ehdr = type { i64 }
%union.anon.1 = type { i32 }
%struct.Buffer = type { ptr, i64, i64, i64 }
%struct.match_data = type { ptr, i64, ptr, ptr, ptr, i8, i8 }

; Function Attrs: null_pointer_is_valid sspstrong uwtable
define hidden ptr @cf_find_string_protocol_tree(ptr noundef %0, ptr noundef %1) #1 {
  %3 = alloca ptr, align 8
  %4 = alloca ptr, align 8
  %5 = alloca %struct.match_data, align 8
  store ptr %0, ptr %3, align 8
  store ptr %1, ptr %4, align 8
  call void @llvm.lifetime.start.p0(i64 48, ptr %5) #19
  %6 = getelementptr inbounds nuw %struct.match_data, ptr %5, i32 0, i32 5
  store i8 0, ptr %6, align 8
  %7 = getelementptr inbounds nuw %struct.match_data, ptr %5, i32 0, i32 6
  store i8 0, ptr %7, align 1
  %8 = load ptr, ptr %3, align 8
  %9 = getelementptr inbounds nuw %struct._capture_file, ptr %8, i32 0, i32 29
  %10 = load ptr, ptr %9, align 8
  %11 = load ptr, ptr %3, align 8
  %12 = getelementptr inbounds nuw %struct._capture_file, ptr %11, i32 0, i32 37
  %13 = load i8, ptr %12, align 8, !range !8, !noundef !9
  %14 = trunc i8 %13 to i1
  %15 = call ptr @convert_string_case(ptr noundef %10, i1 noundef zeroext %14)
  %16 = getelementptr inbounds nuw %struct.match_data, ptr %5, i32 0, i32 0
  store ptr %15, ptr %16, align 8
  %17 = getelementptr inbounds nuw %struct.match_data, ptr %5, i32 0, i32 0
  %18 = load ptr, ptr %17, align 8
  %19 = call i64 @strlen(ptr noundef %18) #25
  %20 = getelementptr inbounds nuw %struct.match_data, ptr %5, i32 0, i32 1
  store i64 %19, ptr %20, align 8
  %21 = load ptr, ptr %3, align 8
  %22 = getelementptr inbounds nuw %struct.match_data, ptr %5, i32 0, i32 2
  store ptr %21, ptr %22, align 8
  %23 = getelementptr inbounds nuw %struct.match_data, ptr %5, i32 0, i32 4
  store ptr null, ptr %23, align 8
  %24 = load ptr, ptr %3, align 8
  %25 = getelementptr inbounds nuw %struct._capture_file, ptr %24, i32 0, i32 40
  %26 = load i32, ptr %25, align 4
  %27 = icmp eq i32 %26, 0
  br i1 %27, label %28, label %30

28:                                               ; preds = %2
  %29 = load ptr, ptr %4, align 8
  call void @proto_tree_children_foreach(ptr noundef %29, ptr noundef @match_subtree_text, ptr noundef %5)
  br label %32

30:                                               ; preds = %2
  %31 = load ptr, ptr %4, align 8
  call void @proto_tree_children_foreach(ptr noundef %31, ptr noundef @match_subtree_text_reverse, ptr noundef %5)
  br label %32

32:                                               ; preds = %30, %28
  %33 = getelementptr inbounds nuw %struct.match_data, ptr %5, i32 0, i32 0
  %34 = load ptr, ptr %33, align 8
  call void @g_free(ptr noundef %34)
  %35 = getelementptr inbounds nuw %struct.match_data, ptr %5, i32 0, i32 5
  %36 = load i8, ptr %35, align 8, !range !8, !noundef !9
  %37 = trunc i8 %36 to i1
  br i1 %37, label %38, label %41

38:                                               ; preds = %32
  %39 = getelementptr inbounds nuw %struct.match_data, ptr %5, i32 0, i32 3
  %40 = load ptr, ptr %39, align 8
  br label %42

41:                                               ; preds = %32
  br label %42

42:                                               ; preds = %41, %38
  %43 = phi ptr [ %40, %38 ], [ null, %41 ]
  call void @llvm.lifetime.end.p0(i64 48, ptr %5) #19
  ret ptr %43
}