; Function Attrs: null_pointer_is_valid sspstrong uwtable
define hidden ptr @cf_find_string_protocol_tree(ptr noundef %0, ptr noundef %1) local_unnamed_addr #1 {
  %3 = alloca %struct.match_data, align 8
  call void @llvm.lifetime.start.p0(i64 48, ptr nonnull %3) #23
  %4 = getelementptr inbounds nuw i8, ptr %3, i64 40
  store i8 0, ptr %4, align 8
  %5 = getelementptr inbounds nuw i8, ptr %3, i64 41
  store i8 0, ptr %5, align 1
  %6 = getelementptr inbounds nuw i8, ptr %0, i64 168
  %7 = load ptr, ptr %6, align 8
  %8 = getelementptr inbounds nuw i8, ptr %0, i64 192
  %9 = load i8, ptr %8, align 8, !range !9, !noundef !10
  %10 = trunc nuw i8 %9 to i1
  %11 = tail call ptr @convert_string_case(ptr noundef %7, i1 noundef zeroext %10)
  store ptr %11, ptr %3, align 8
  %12 = tail call i64 @strlen(ptr noundef %11) #26
  %13 = getelementptr inbounds nuw i8, ptr %3, i64 8
  store i64 %12, ptr %13, align 8
  %14 = getelementptr inbounds nuw i8, ptr %3, i64 16
  store ptr %0, ptr %14, align 8
  %15 = getelementptr inbounds nuw i8, ptr %3, i64 32
  store ptr null, ptr %15, align 8
  %16 = getelementptr inbounds nuw i8, ptr %0, i64 212
  %17 = load i32, ptr %16, align 4
  %18 = icmp eq i32 %17, 0
  %match_subtree_text.match_subtree_text_reverse = select i1 %18, ptr @match_subtree_text, ptr @match_subtree_text_reverse
  call void @proto_tree_children_foreach(ptr noundef %1, ptr noundef nonnull %match_subtree_text.match_subtree_text_reverse, ptr noundef nonnull %3)
  %19 = load ptr, ptr %3, align 8
  call void @g_free(ptr noundef %19)
  %20 = load i8, ptr %4, align 8, !range !9, !noundef !10
  %21 = trunc nuw i8 %20 to i1
  %22 = getelementptr inbounds nuw i8, ptr %3, i64 24
  %23 = load ptr, ptr %22, align 8
  %24 = select i1 %21, ptr %23, ptr null
  call void @llvm.lifetime.end.p0(i64 48, ptr nonnull %3) #23
  ret ptr %24
}